; Function Attrs: mustprogress uwtable
define hidden void @_ZN5osgeo4proj5datum5DatumC2Ev(ptr noundef nonnull align 8 dereferenceable(64) %0) unnamed_addr #0 align 2 personality ptr @__gxx_personality_v0 {
  tail call void @_ZN5osgeo4proj6common11ObjectUsageC2Ev(ptr noundef nonnull align 8 dereferenceable(48) %0)
  %2 = getelementptr inbounds i8, ptr %0, i64 48
  store ptr getelementptr inbounds inrange(-16, 32) ({ [6 x ptr], [5 x ptr], [5 x ptr], [5 x ptr] }, ptr @_ZTVN5osgeo4proj5datum5DatumE, i64 0, i32 0, i64 2), ptr %0, align 8
  %3 = getelementptr inbounds i8, ptr %0, i64 16
  store ptr getelementptr inbounds inrange(-16, 24) ({ [6 x ptr], [5 x ptr], [5 x ptr], [5 x ptr] }, ptr @_ZTVN5osgeo4proj5datum5DatumE, i64 0, i32 1, i64 2), ptr %3, align 8
  %4 = getelementptr inbounds i8, ptr %0, i64 24
  store ptr getelementptr inbounds inrange(-16, 24) ({ [6 x ptr], [5 x ptr], [5 x ptr], [5 x ptr] }, ptr @_ZTVN5osgeo4proj5datum5DatumE, i64 0, i32 2, i64 2), ptr %4, align 8
  store ptr getelementptr inbounds inrange(-16, 24) ({ [6 x ptr], [5 x ptr], [5 x ptr], [5 x ptr] }, ptr @_ZTVN5osgeo4proj5datum5DatumE, i64 0, i32 3, i64 2), ptr %2, align 8
  tail call void @llvm.experimental.noalias.scope.decl(metadata !4)
  %5 = invoke noalias noundef nonnull dereferenceable(88) ptr @_Znwm(i64 noundef 88) #27
          to label %.noexc unwind label %10

.noexc:                                           ; preds = %1
  tail call void @llvm.memset.p0.i64(ptr noundef nonnull align 16 dereferenceable(88) %5, i8 0, i64 88, i1 false), !noalias !4
  invoke void @_ZN5osgeo4proj5datum5Datum7PrivateC2Ev(ptr noundef nonnull align 8 dereferenceable(88) %5)
          to label %8 unwind label %6, !noalias !4

6:                                                ; preds = %.noexc
  %7 = landingpad { ptr, i32 }
          cleanup
  tail call void @_ZdlPv(ptr noundef nonnull %5) #28, !noalias !4
  br label %.body

8:                                                ; preds = %.noexc
  %9 = getelementptr inbounds i8, ptr %0, i64 56
  store ptr %5, ptr %9, align 8, !alias.scope !4
  ret void

10:                                               ; preds = %1
  %11 = landingpad { ptr, i32 }
          cleanup
  br label %.body

.body:                                            ; preds = %6, %10
  %eh.lpad-body = phi { ptr, i32 } [ %11, %10 ], [ %7, %6 ]
  tail call void @_ZN5osgeo4proj2io15IJSONExportableD2Ev(ptr noundef nonnull align 8 dereferenceable(8) %2) #26
  tail call void @_ZN5osgeo4proj6common11ObjectUsageD2Ev(ptr noundef nonnull align 8 dereferenceable(48) %0) #26
  resume { ptr, i32 } %eh.lpad-body
}